#include <math.h>
#include <stdio.h>
#include <stdlib.h>
#include <string.h>

void main()
{
	char a[6];
	int b,c,i;
	scanf("%s",a);
	b=strlen(a);
	for(i=0;i<(b-1)/2;i++)
	{
			a[i]=a[b-i-1]+a[i];
			a[b-i-1]=a[i]-a[b-i-1];
			a[i]=a[i]-a[b-i-1];
	}
	printf("%s\n",a);
}