; ModuleID = 'source-C-CXX/55/735.c'
source_filename = "source-C-CXX/55/735.c"
target datalayout = "e-m:e-p270:32:32-p271:32:32-p272:64:64-i64:64-f80:128-n8:16:32:64-S128"
target triple = "x86_64-pc-linux-gnu"

@.str = private unnamed_addr constant [3 x i8] c"%s\00", align 1

; Function Attrs: nofree nounwind sspstrong uwtable
define dso_local void @main() local_unnamed_addr #0 {
  %1 = alloca [6 x i8], align 1
  %2 = getelementptr inbounds [6 x i8], [6 x i8]* %1, i64 0, i64 0
  call void @llvm.lifetime.start.p0i8(i64 6, i8* nonnull %2) #5
  %3 = call i32 (i8*, ...) @__isoc99_scanf(i8* getelementptr inbounds ([3 x i8], [3 x i8]* @.str, i64 0, i64 0), i8* nonnull %2)
  %4 = call i64 @strlen(i8* noundef nonnull %2) #6
  %5 = trunc i64 %4 to i32
  %6 = icmp sgt i32 %5, 2
  br i1 %6, label %7, label %29

7:                                                ; preds = %0
  %8 = add i64 %4, 4294967295
  %9 = lshr i64 %8, 1
  %10 = and i64 %9, 2147483647
  br label %11

11:                                               ; preds = %7, %11
  %12 = phi i64 [ 0, %7 ], [ %26, %11 ]
  %13 = phi i32 [ 0, %7 ], [ %27, %11 ]
  %14 = xor i32 %13, -1
  %15 = add i32 %14, %5
  %16 = sext i32 %15 to i64
  %17 = getelementptr inbounds [6 x i8], [6 x i8]* %1, i64 0, i64 %16
  %18 = load i8, i8* %17, align 1, !tbaa !5
  %19 = getelementptr inbounds [6 x i8], [6 x i8]* %1, i64 0, i64 %12
  %20 = load i8, i8* %19, align 1, !tbaa !5
  %21 = add i8 %20, %18
  store i8 %21, i8* %19, align 1, !tbaa !5
  %22 = load i8, i8* %17, align 1, !tbaa !5
  %23 = sub i8 %21, %22
  store i8 %23, i8* %17, align 1, !tbaa !5
  %24 = load i8, i8* %19, align 1, !tbaa !5
  %25 = sub i8 %24, %23
  store i8 %25, i8* %19, align 1, !tbaa !5
  %26 = add nuw nsw i64 %12, 1
  %27 = add nuw nsw i32 %13, 1
  %28 = icmp eq i64 %26, %10
  br i1 %28, label %29, label %11, !llvm.loop !8

29:                                               ; preds = %11, %0
  %30 = call i32 @puts(i8* nonnull %2)
  call void @llvm.lifetime.end.p0i8(i64 6, i8* nonnull %2) #5
  ret void
}

; Function Attrs: argmemonly mustprogress nofree nosync nounwind willreturn
declare void @llvm.lifetime.start.p0i8(i64 immarg, i8* nocapture) #1

; Function Attrs: nofree nounwind
declare noundef i32 @__isoc99_scanf(i8* nocapture noundef readonly, ...) local_unnamed_addr #2

; Function Attrs: argmemonly mustprogress nofree nounwind readonly willreturn
declare i64 @strlen(i8* nocapture) local_unnamed_addr #3

; Function Attrs: argmemonly mustprogress nofree nosync nounwind willreturn
declare void @llvm.lifetime.end.p0i8(i64 immarg, i8* nocapture) #1

; Function Attrs: nofree nounwind
declare noundef i32 @puts(i8* nocapture noundef readonly) local_unnamed_addr #4


!llvm.module.flags = !{!0, !1, !2, !3}
!llvm.ident = !{!4}

!0 = !{i32 1, !"wchar_size", i32 4}
!1 = !{i32 7, !"PIC Level", i32 2}
!2 = !{i32 7, !"PIE Level", i32 2}
!3 = !{i32 7, !"uwtable", i32 1}
!4 = !{!"clang version 13.0.0"}
!5 = !{!6, !6, i64 0}
!6 = !{!"omnipotent char", !7, i64 0}
!7 = !{!"Simple C/C++ TBAA"}
!8 = distinct !{!8, !9}
!9 = !{!"llvm.loop.mustprogress"}
